
Tema2.elf:     file format elf32-avr

Sections:
Idx Name          Size      VMA       LMA       File off  Algn
  0 .data         00000000  00800100  00800100  00000254  2**0
                  CONTENTS, ALLOC, LOAD, DATA
  1 .text         00000200  00000000  00000000  00000054  2**1
                  CONTENTS, ALLOC, LOAD, READONLY, CODE
  2 .comment      00000030  00000000  00000000  00000254  2**0
                  CONTENTS, READONLY
  3 .note.gnu.avr.deviceinfo 00000040  00000000  00000000  00000284  2**2
                  CONTENTS, READONLY
  4 .debug_aranges 00000038  00000000  00000000  000002c4  2**0
                  CONTENTS, READONLY, DEBUGGING
  5 .debug_info   00000b43  00000000  00000000  000002fc  2**0
                  CONTENTS, READONLY, DEBUGGING
  6 .debug_abbrev 000006cc  00000000  00000000  00000e3f  2**0
                  CONTENTS, READONLY, DEBUGGING
  7 .debug_line   000003c4  00000000  00000000  0000150b  2**0
                  CONTENTS, READONLY, DEBUGGING
  8 .debug_frame  00000054  00000000  00000000  000018d0  2**2
                  CONTENTS, READONLY, DEBUGGING
  9 .debug_str    000003a0  00000000  00000000  00001924  2**0
                  CONTENTS, READONLY, DEBUGGING
 10 .debug_loc    00000240  00000000  00000000  00001cc4  2**0
                  CONTENTS, READONLY, DEBUGGING
 11 .debug_ranges 00000028  00000000  00000000  00001f04  2**0
                  CONTENTS, READONLY, DEBUGGING

Disassembly of section .text:

00000000 <__vectors>:
   0:	0c 94 34 00 	jmp	0x68	; 0x68 <__ctors_end>
   4:	0c 94 3e 00 	jmp	0x7c	; 0x7c <__bad_interrupt>
   8:	0c 94 3e 00 	jmp	0x7c	; 0x7c <__bad_interrupt>
   c:	0c 94 3e 00 	jmp	0x7c	; 0x7c <__bad_interrupt>
  10:	0c 94 3e 00 	jmp	0x7c	; 0x7c <__bad_interrupt>
  14:	0c 94 3e 00 	jmp	0x7c	; 0x7c <__bad_interrupt>
  18:	0c 94 3e 00 	jmp	0x7c	; 0x7c <__bad_interrupt>
  1c:	0c 94 3e 00 	jmp	0x7c	; 0x7c <__bad_interrupt>
  20:	0c 94 3e 00 	jmp	0x7c	; 0x7c <__bad_interrupt>
  24:	0c 94 3e 00 	jmp	0x7c	; 0x7c <__bad_interrupt>
  28:	0c 94 3e 00 	jmp	0x7c	; 0x7c <__bad_interrupt>
  2c:	0c 94 3e 00 	jmp	0x7c	; 0x7c <__bad_interrupt>
  30:	0c 94 3e 00 	jmp	0x7c	; 0x7c <__bad_interrupt>
  34:	0c 94 3e 00 	jmp	0x7c	; 0x7c <__bad_interrupt>
  38:	0c 94 3e 00 	jmp	0x7c	; 0x7c <__bad_interrupt>
  3c:	0c 94 3e 00 	jmp	0x7c	; 0x7c <__bad_interrupt>
  40:	0c 94 3e 00 	jmp	0x7c	; 0x7c <__bad_interrupt>
  44:	0c 94 3e 00 	jmp	0x7c	; 0x7c <__bad_interrupt>
  48:	0c 94 3e 00 	jmp	0x7c	; 0x7c <__bad_interrupt>
  4c:	0c 94 3e 00 	jmp	0x7c	; 0x7c <__bad_interrupt>
  50:	0c 94 3e 00 	jmp	0x7c	; 0x7c <__bad_interrupt>
  54:	0c 94 3e 00 	jmp	0x7c	; 0x7c <__bad_interrupt>
  58:	0c 94 3e 00 	jmp	0x7c	; 0x7c <__bad_interrupt>
  5c:	0c 94 3e 00 	jmp	0x7c	; 0x7c <__bad_interrupt>
  60:	0c 94 3e 00 	jmp	0x7c	; 0x7c <__bad_interrupt>
  64:	0c 94 3e 00 	jmp	0x7c	; 0x7c <__bad_interrupt>

00000068 <__ctors_end>:
  68:	11 24       	eor	r1, r1
  6a:	1f be       	out	0x3f, r1	; 63
  6c:	cf ef       	ldi	r28, 0xFF	; 255
  6e:	d8 e0       	ldi	r29, 0x08	; 8
  70:	de bf       	out	0x3e, r29	; 62
  72:	cd bf       	out	0x3d, r28	; 61
  74:	0e 94 59 00 	call	0xb2	; 0xb2 <main>
  78:	0c 94 fe 00 	jmp	0x1fc	; 0x1fc <_exit>

0000007c <__bad_interrupt>:
  7c:	0c 94 00 00 	jmp	0	; 0x0 <__vectors>

00000080 <pinSet>:
}


void pinSet(volatile uint8_t *port, uint8_t pin)
{
	*port |= 1 << pin;
  80:	fc 01       	movw	r30, r24
  82:	40 81       	ld	r20, Z
  84:	21 e0       	ldi	r18, 0x01	; 1
  86:	30 e0       	ldi	r19, 0x00	; 0
  88:	02 c0       	rjmp	.+4      	; 0x8e <pinSet+0xe>
  8a:	22 0f       	add	r18, r18
  8c:	33 1f       	adc	r19, r19
  8e:	6a 95       	dec	r22
  90:	e2 f7       	brpl	.-8      	; 0x8a <pinSet+0xa>
  92:	24 2b       	or	r18, r20
  94:	20 83       	st	Z, r18
  96:	08 95       	ret

00000098 <pinReset>:
}

void pinReset(volatile uint8_t *port, uint8_t pin)
{
  98:	fc 01       	movw	r30, r24
	*port &= ~(1 << pin);
  9a:	90 81       	ld	r25, Z
  9c:	21 e0       	ldi	r18, 0x01	; 1
  9e:	30 e0       	ldi	r19, 0x00	; 0
  a0:	02 c0       	rjmp	.+4      	; 0xa6 <pinReset+0xe>
  a2:	22 0f       	add	r18, r18
  a4:	33 1f       	adc	r19, r19
  a6:	6a 95       	dec	r22
  a8:	e2 f7       	brpl	.-8      	; 0xa2 <pinReset+0xa>
  aa:	20 95       	com	r18
  ac:	29 23       	and	r18, r25
  ae:	20 83       	st	Z, r18
  b0:	08 95       	ret

000000b2 <main>:
void pinSet(volatile uint8_t *port, uint8_t pin);
void pinReset(volatile uint8_t *port, uint8_t pin);

int main(void)
{
    DDRB = 0xFF;
  b2:	8f ef       	ldi	r24, 0xFF	; 255
  b4:	84 b9       	out	0x04, r24	; 4
	DDRC = 0xFF;
  b6:	87 b9       	out	0x07, r24	; 7
	DDRD = 0xFF;
  b8:	8a b9       	out	0x0a, r24	; 10
	PORTB = 0x00;
  ba:	15 b8       	out	0x05, r1	; 5
	PORTC = 0x00;
  bc:	18 b8       	out	0x08, r1	; 8
	PORTD = 0x00;
  be:	1b b8       	out	0x0b, r1	; 11
	pinSet(&PORTD, PIND4);
  c0:	64 e0       	ldi	r22, 0x04	; 4
  c2:	8b e2       	ldi	r24, 0x2B	; 43
  c4:	90 e0       	ldi	r25, 0x00	; 0
  c6:	0e 94 40 00 	call	0x80	; 0x80 <pinSet>
    while (1) 
    {
		
		pinSet(&PORTD, PIND5);
  ca:	65 e0       	ldi	r22, 0x05	; 5
  cc:	8b e2       	ldi	r24, 0x2B	; 43
  ce:	90 e0       	ldi	r25, 0x00	; 0
  d0:	0e 94 40 00 	call	0x80	; 0x80 <pinSet>
	#else
		//round up by default
		__ticks_dc = (uint32_t)(ceil(fabs(__tmp)));
	#endif

	__builtin_avr_delay_cycles(__ticks_dc);
  d4:	2f ef       	ldi	r18, 0xFF	; 255
  d6:	81 ee       	ldi	r24, 0xE1	; 225
  d8:	94 e0       	ldi	r25, 0x04	; 4
  da:	21 50       	subi	r18, 0x01	; 1
  dc:	80 40       	sbci	r24, 0x00	; 0
  de:	90 40       	sbci	r25, 0x00	; 0
  e0:	e1 f7       	brne	.-8      	; 0xda <main+0x28>
  e2:	00 c0       	rjmp	.+0      	; 0xe4 <main+0x32>
  e4:	00 00       	nop
		
		_delay_ms(100);
		
		pinReset(&PORTD, PIND4);
  e6:	64 e0       	ldi	r22, 0x04	; 4
  e8:	8b e2       	ldi	r24, 0x2B	; 43
  ea:	90 e0       	ldi	r25, 0x00	; 0
  ec:	0e 94 4c 00 	call	0x98	; 0x98 <pinReset>
		pinSet(&PORTD, PIND6);
  f0:	66 e0       	ldi	r22, 0x06	; 6
  f2:	8b e2       	ldi	r24, 0x2B	; 43
  f4:	90 e0       	ldi	r25, 0x00	; 0
  f6:	0e 94 40 00 	call	0x80	; 0x80 <pinSet>
  fa:	2f ef       	ldi	r18, 0xFF	; 255
  fc:	81 ee       	ldi	r24, 0xE1	; 225
  fe:	94 e0       	ldi	r25, 0x04	; 4
 100:	21 50       	subi	r18, 0x01	; 1
 102:	80 40       	sbci	r24, 0x00	; 0
 104:	90 40       	sbci	r25, 0x00	; 0
 106:	e1 f7       	brne	.-8      	; 0x100 <main+0x4e>
 108:	00 c0       	rjmp	.+0      	; 0x10a <main+0x58>
 10a:	00 00       	nop
		_delay_ms(100);
		
		pinReset(&PORTD, PIND5);
 10c:	65 e0       	ldi	r22, 0x05	; 5
 10e:	8b e2       	ldi	r24, 0x2B	; 43
 110:	90 e0       	ldi	r25, 0x00	; 0
 112:	0e 94 4c 00 	call	0x98	; 0x98 <pinReset>
		pinSet(&PORTD, PIND7);
 116:	67 e0       	ldi	r22, 0x07	; 7
 118:	8b e2       	ldi	r24, 0x2B	; 43
 11a:	90 e0       	ldi	r25, 0x00	; 0
 11c:	0e 94 40 00 	call	0x80	; 0x80 <pinSet>
 120:	2f ef       	ldi	r18, 0xFF	; 255
 122:	81 ee       	ldi	r24, 0xE1	; 225
 124:	94 e0       	ldi	r25, 0x04	; 4
 126:	21 50       	subi	r18, 0x01	; 1
 128:	80 40       	sbci	r24, 0x00	; 0
 12a:	90 40       	sbci	r25, 0x00	; 0
 12c:	e1 f7       	brne	.-8      	; 0x126 <main+0x74>
 12e:	00 c0       	rjmp	.+0      	; 0x130 <main+0x7e>
 130:	00 00       	nop
		_delay_ms(100);
		
		pinReset(&PORTD, PIND6);
 132:	66 e0       	ldi	r22, 0x06	; 6
 134:	8b e2       	ldi	r24, 0x2B	; 43
 136:	90 e0       	ldi	r25, 0x00	; 0
 138:	0e 94 4c 00 	call	0x98	; 0x98 <pinReset>
		pinSet(&PORTB, PINB0);
 13c:	60 e0       	ldi	r22, 0x00	; 0
 13e:	85 e2       	ldi	r24, 0x25	; 37
 140:	90 e0       	ldi	r25, 0x00	; 0
 142:	0e 94 40 00 	call	0x80	; 0x80 <pinSet>
 146:	2f ef       	ldi	r18, 0xFF	; 255
 148:	81 ee       	ldi	r24, 0xE1	; 225
 14a:	94 e0       	ldi	r25, 0x04	; 4
 14c:	21 50       	subi	r18, 0x01	; 1
 14e:	80 40       	sbci	r24, 0x00	; 0
 150:	90 40       	sbci	r25, 0x00	; 0
 152:	e1 f7       	brne	.-8      	; 0x14c <main+0x9a>
 154:	00 c0       	rjmp	.+0      	; 0x156 <main+0xa4>
 156:	00 00       	nop
		
		_delay_ms(100);
		
		pinReset(&PORTD, PIND7);
 158:	67 e0       	ldi	r22, 0x07	; 7
 15a:	8b e2       	ldi	r24, 0x2B	; 43
 15c:	90 e0       	ldi	r25, 0x00	; 0
 15e:	0e 94 4c 00 	call	0x98	; 0x98 <pinReset>
		pinSet(&PORTB, PINB1);
 162:	61 e0       	ldi	r22, 0x01	; 1
 164:	85 e2       	ldi	r24, 0x25	; 37
 166:	90 e0       	ldi	r25, 0x00	; 0
 168:	0e 94 40 00 	call	0x80	; 0x80 <pinSet>
 16c:	2f ef       	ldi	r18, 0xFF	; 255
 16e:	81 ee       	ldi	r24, 0xE1	; 225
 170:	94 e0       	ldi	r25, 0x04	; 4
 172:	21 50       	subi	r18, 0x01	; 1
 174:	80 40       	sbci	r24, 0x00	; 0
 176:	90 40       	sbci	r25, 0x00	; 0
 178:	e1 f7       	brne	.-8      	; 0x172 <main+0xc0>
 17a:	00 c0       	rjmp	.+0      	; 0x17c <main+0xca>
 17c:	00 00       	nop
		
		_delay_ms(100);
		
		pinReset(&PORTB, PINB0);
 17e:	60 e0       	ldi	r22, 0x00	; 0
 180:	85 e2       	ldi	r24, 0x25	; 37
 182:	90 e0       	ldi	r25, 0x00	; 0
 184:	0e 94 4c 00 	call	0x98	; 0x98 <pinReset>
		pinSet(&PORTB, PINB2);
 188:	62 e0       	ldi	r22, 0x02	; 2
 18a:	85 e2       	ldi	r24, 0x25	; 37
 18c:	90 e0       	ldi	r25, 0x00	; 0
 18e:	0e 94 40 00 	call	0x80	; 0x80 <pinSet>
 192:	2f ef       	ldi	r18, 0xFF	; 255
 194:	81 ee       	ldi	r24, 0xE1	; 225
 196:	94 e0       	ldi	r25, 0x04	; 4
 198:	21 50       	subi	r18, 0x01	; 1
 19a:	80 40       	sbci	r24, 0x00	; 0
 19c:	90 40       	sbci	r25, 0x00	; 0
 19e:	e1 f7       	brne	.-8      	; 0x198 <main+0xe6>
 1a0:	00 c0       	rjmp	.+0      	; 0x1a2 <main+0xf0>
 1a2:	00 00       	nop
		
		_delay_ms(100);
		
		pinReset(&PORTB, PINB1);
 1a4:	61 e0       	ldi	r22, 0x01	; 1
 1a6:	85 e2       	ldi	r24, 0x25	; 37
 1a8:	90 e0       	ldi	r25, 0x00	; 0
 1aa:	0e 94 4c 00 	call	0x98	; 0x98 <pinReset>
		pinSet(&PORTB, PINB3);
 1ae:	63 e0       	ldi	r22, 0x03	; 3
 1b0:	85 e2       	ldi	r24, 0x25	; 37
 1b2:	90 e0       	ldi	r25, 0x00	; 0
 1b4:	0e 94 40 00 	call	0x80	; 0x80 <pinSet>
 1b8:	2f ef       	ldi	r18, 0xFF	; 255
 1ba:	81 ee       	ldi	r24, 0xE1	; 225
 1bc:	94 e0       	ldi	r25, 0x04	; 4
 1be:	21 50       	subi	r18, 0x01	; 1
 1c0:	80 40       	sbci	r24, 0x00	; 0
 1c2:	90 40       	sbci	r25, 0x00	; 0
 1c4:	e1 f7       	brne	.-8      	; 0x1be <main+0x10c>
 1c6:	00 c0       	rjmp	.+0      	; 0x1c8 <main+0x116>
 1c8:	00 00       	nop
		
		_delay_ms(100);
		
		pinReset(&PORTB, PINB2);
 1ca:	62 e0       	ldi	r22, 0x02	; 2
 1cc:	85 e2       	ldi	r24, 0x25	; 37
 1ce:	90 e0       	ldi	r25, 0x00	; 0
 1d0:	0e 94 4c 00 	call	0x98	; 0x98 <pinReset>
		pinSet(&PORTD, PIND4);
 1d4:	64 e0       	ldi	r22, 0x04	; 4
 1d6:	8b e2       	ldi	r24, 0x2B	; 43
 1d8:	90 e0       	ldi	r25, 0x00	; 0
 1da:	0e 94 40 00 	call	0x80	; 0x80 <pinSet>
 1de:	2f ef       	ldi	r18, 0xFF	; 255
 1e0:	81 ee       	ldi	r24, 0xE1	; 225
 1e2:	94 e0       	ldi	r25, 0x04	; 4
 1e4:	21 50       	subi	r18, 0x01	; 1
 1e6:	80 40       	sbci	r24, 0x00	; 0
 1e8:	90 40       	sbci	r25, 0x00	; 0
 1ea:	e1 f7       	brne	.-8      	; 0x1e4 <main+0x132>
 1ec:	00 c0       	rjmp	.+0      	; 0x1ee <main+0x13c>
 1ee:	00 00       	nop
		_delay_ms(100);
		
		pinReset(&PORTB, PINB3);
 1f0:	63 e0       	ldi	r22, 0x03	; 3
 1f2:	85 e2       	ldi	r24, 0x25	; 37
 1f4:	90 e0       	ldi	r25, 0x00	; 0
 1f6:	0e 94 4c 00 	call	0x98	; 0x98 <pinReset>
 1fa:	67 cf       	rjmp	.-306    	; 0xca <main+0x18>

000001fc <_exit>:
 1fc:	f8 94       	cli

000001fe <__stop_program>:
 1fe:	ff cf       	rjmp	.-2      	; 0x1fe <__stop_program>
